; Function Attrs: nounwind uwtable
define range(i32 0, 2) i32 @ASN1_item_print(ptr noundef %0, ptr noundef %1, i32 noundef %2, ptr noundef %3, ptr noundef %4) local_unnamed_addr #0 {
  %6 = alloca ptr, align 8
  store ptr %1, ptr %6, align 8, !tbaa !12
  %7 = icmp eq ptr %4, null
  %spec.store.select = select i1 %7, ptr @default_pctx, ptr %4
  %8 = load i64, ptr %spec.store.select, align 8, !tbaa !3
  %9 = and i64 %8, 256
  %.not = icmp eq i64 %9, 0
  br i1 %.not, label %10, label %13

10:                                               ; preds = %5
  %11 = getelementptr inbounds nuw i8, ptr %3, i64 48
  %12 = load ptr, ptr %11, align 8, !tbaa !15
  br label %13

13:                                               ; preds = %5, %10
  %.0 = phi ptr [ %12, %10 ], [ null, %5 ]
  %14 = call fastcc i32 @asn1_item_print_ctx(ptr noundef %0, ptr noundef nonnull %6, i32 noundef %2, ptr noundef %3, ptr noundef null, ptr noundef %.0, i32 noundef 0, ptr noundef nonnull %spec.store.select)
  ret i32 %14
}